target datalayout = "e-m:e-p270:32:32-p271:32:32-p272:64:64-i64:64-i128:128-f80:128-n8:16:32:64-S128"
target triple = "x86_64-pc-linux-gnu"

%struct._lv_table_t = type { %struct._lv_obj_t, i32, i32, ptr, ptr, ptr, i32, i32 }
%struct._lv_obj_t = type { ptr, ptr, ptr, ptr, ptr, %struct.lv_area_t, i32, i16, i16 }
%struct.lv_area_t = type { i32, i32, i32, i32 }
%struct._lv_table_cell_t = type { i32, ptr, [1 x i8] }

; Function Attrs: nounwind uwtable
define internal void @copy_cell_txt(ptr noundef %0, ptr noundef %1) #0 {
  %3 = alloca ptr, align 8
  %4 = alloca ptr, align 8
  store ptr %0, ptr %3, align 8, !tbaa !27
  store ptr %1, ptr %4, align 8, !tbaa !45
  %5 = load ptr, ptr %3, align 8, !tbaa !27
  %6 = getelementptr inbounds nuw %struct._lv_table_cell_t, ptr %5, i32 0, i32 2
  %7 = getelementptr inbounds [1 x i8], ptr %6, i64 0, i64 0
  %8 = load ptr, ptr %4, align 8, !tbaa !45
  %9 = call ptr @lv_strcpy(ptr noundef %7, ptr noundef %8)
  ret void
}

; Function Attrs: nounwind uwtable
define internal i64 @get_cell_txt_len(ptr noundef %0) #0 {
  %2 = alloca ptr, align 8
  %3 = alloca i64, align 8
  store ptr %0, ptr %2, align 8, !tbaa !45
  call void @llvm.lifetime.start.p0(i64 8, ptr %3) #6
  store i64 0, ptr %3, align 8, !tbaa !48
  %4 = load ptr, ptr %2, align 8, !tbaa !45
  %5 = call i64 @lv_strlen(ptr noundef %4)
  %6 = add i64 24, %5
  %7 = add i64 %6, 1
  store i64 %7, ptr %3, align 8, !tbaa !48
  %8 = load i64, ptr %3, align 8, !tbaa !48
  call void @llvm.lifetime.end.p0(i64 8, ptr %3) #6
  ret i64 %8
}

; Function Attrs: nounwind uwtable
define void @lv_table_set_cell_value(ptr noundef %0, i32 noundef %1, i32 noundef %2, ptr noundef %3) #0 {
  %5 = alloca ptr, align 8
  %6 = alloca i32, align 4
  %7 = alloca i32, align 4
  %8 = alloca ptr, align 8
  %9 = alloca ptr, align 8
  %10 = alloca i32, align 4
  %11 = alloca i32, align 4
  %12 = alloca ptr, align 8
  %13 = alloca i64, align 8
  %14 = alloca i32, align 4
  store ptr %0, ptr %5, align 8, !tbaa !8
  store i32 %1, ptr %6, align 4, !tbaa !25
  store i32 %2, ptr %7, align 4, !tbaa !25
  store ptr %3, ptr %8, align 8, !tbaa !45
  br label %15

15:                                               ; preds = %4
  %16 = load ptr, ptr %5, align 8, !tbaa !8
  %17 = icmp ne ptr %16, null
  br i1 %17, label %22, label %18

18:                                               ; preds = %15
  br label %19

19:                                               ; preds = %18
  br label %20

20:                                               ; preds = %19
  br label %21

21:                                               ; preds = %20, %21
  br label %21

22:                                               ; preds = %15
  br label %23

23:                                               ; preds = %22
  br label %24

24:                                               ; preds = %23
  %25 = load ptr, ptr %8, align 8, !tbaa !45
  %26 = icmp ne ptr %25, null
  br i1 %26, label %31, label %27

27:                                               ; preds = %24
  br label %28

28:                                               ; preds = %27
  br label %29

29:                                               ; preds = %28
  br label %30

30:                                               ; preds = %29, %30
  br label %30

31:                                               ; preds = %24
  br label %32

32:                                               ; preds = %31
  call void @llvm.lifetime.start.p0(i64 8, ptr %9) #6
  %33 = load ptr, ptr %5, align 8, !tbaa !8
  store ptr %33, ptr %9, align 8, !tbaa !10
  %34 = load i32, ptr %7, align 4, !tbaa !25
  %35 = load ptr, ptr %9, align 8, !tbaa !10
  %36 = getelementptr inbounds nuw %struct._lv_table_t, ptr %35, i32 0, i32 1
  %37 = load i32, ptr %36, align 8, !tbaa !12
  %38 = icmp uge i32 %34, %37
  br i1 %38, label %39, label %43

39:                                               ; preds = %32
  %40 = load ptr, ptr %5, align 8, !tbaa !8
  %41 = load i32, ptr %7, align 4, !tbaa !25
  %42 = add i32 %41, 1
  call void @lv_table_set_column_count(ptr noundef %40, i32 noundef %42)
  br label %43

43:                                               ; preds = %39, %32
  %44 = load i32, ptr %6, align 4, !tbaa !25
  %45 = load ptr, ptr %9, align 8, !tbaa !10
  %46 = getelementptr inbounds nuw %struct._lv_table_t, ptr %45, i32 0, i32 2
  %47 = load i32, ptr %46, align 4, !tbaa !22
  %48 = icmp uge i32 %44, %47
  br i1 %48, label %49, label %53

49:                                               ; preds = %43
  %50 = load ptr, ptr %5, align 8, !tbaa !8
  %51 = load i32, ptr %6, align 4, !tbaa !25
  %52 = add i32 %51, 1
  call void @lv_table_set_row_count(ptr noundef %50, i32 noundef %52)
  br label %53

53:                                               ; preds = %49, %43
  call void @llvm.lifetime.start.p0(i64 4, ptr %10) #6
  %54 = load i32, ptr %6, align 4, !tbaa !25
  %55 = load ptr, ptr %9, align 8, !tbaa !10
  %56 = getelementptr inbounds nuw %struct._lv_table_t, ptr %55, i32 0, i32 1
  %57 = load i32, ptr %56, align 8, !tbaa !12
  %58 = mul i32 %54, %57
  %59 = load i32, ptr %7, align 4, !tbaa !25
  %60 = add i32 %58, %59
  store i32 %60, ptr %10, align 4, !tbaa !25
  call void @llvm.lifetime.start.p0(i64 4, ptr %11) #6
  store i32 0, ptr %11, align 4, !tbaa !25
  %61 = load ptr, ptr %9, align 8, !tbaa !10
  %62 = getelementptr inbounds nuw %struct._lv_table_t, ptr %61, i32 0, i32 3
  %63 = load ptr, ptr %62, align 8, !tbaa !26
  %64 = load i32, ptr %10, align 4, !tbaa !25
  %65 = zext i32 %64 to i64
  %66 = getelementptr inbounds nuw ptr, ptr %63, i64 %65
  %67 = load ptr, ptr %66, align 8, !tbaa !27
  %68 = icmp ne ptr %67, null
  br i1 %68, label %69, label %79

69:                                               ; preds = %53
  %70 = load ptr, ptr %9, align 8, !tbaa !10
  %71 = getelementptr inbounds nuw %struct._lv_table_t, ptr %70, i32 0, i32 3
  %72 = load ptr, ptr %71, align 8, !tbaa !26
  %73 = load i32, ptr %10, align 4, !tbaa !25
  %74 = zext i32 %73 to i64
  %75 = getelementptr inbounds nuw ptr, ptr %72, i64 %74
  %76 = load ptr, ptr %75, align 8, !tbaa !27
  %77 = getelementptr inbounds nuw %struct._lv_table_cell_t, ptr %76, i32 0, i32 0
  %78 = load i32, ptr %77, align 8, !tbaa !47
  store i32 %78, ptr %11, align 4, !tbaa !25
  br label %79

79:                                               ; preds = %69, %53
  call void @llvm.lifetime.start.p0(i64 8, ptr %12) #6
  store ptr null, ptr %12, align 8, !tbaa !37
  %80 = load ptr, ptr %9, align 8, !tbaa !10
  %81 = getelementptr inbounds nuw %struct._lv_table_t, ptr %80, i32 0, i32 3
  %82 = load ptr, ptr %81, align 8, !tbaa !26
  %83 = load i32, ptr %10, align 4, !tbaa !25
  %84 = zext i32 %83 to i64
  %85 = getelementptr inbounds nuw ptr, ptr %82, i64 %84
  %86 = load ptr, ptr %85, align 8, !tbaa !27
  %87 = icmp ne ptr %86, null
  br i1 %87, label %88, label %98

88:                                               ; preds = %79
  %89 = load ptr, ptr %9, align 8, !tbaa !10
  %90 = getelementptr inbounds nuw %struct._lv_table_t, ptr %89, i32 0, i32 3
  %91 = load ptr, ptr %90, align 8, !tbaa !26
  %92 = load i32, ptr %10, align 4, !tbaa !25
  %93 = zext i32 %92 to i64
  %94 = getelementptr inbounds nuw ptr, ptr %91, i64 %93
  %95 = load ptr, ptr %94, align 8, !tbaa !27
  %96 = getelementptr inbounds nuw %struct._lv_table_cell_t, ptr %95, i32 0, i32 1
  %97 = load ptr, ptr %96, align 8, !tbaa !31
  store ptr %97, ptr %12, align 8, !tbaa !37
  br label %98

98:                                               ; preds = %88, %79
  call void @llvm.lifetime.start.p0(i64 8, ptr %13) #6
  %99 = load ptr, ptr %8, align 8, !tbaa !45
  %100 = call i64 @get_cell_txt_len(ptr noundef %99)
  store i64 %100, ptr %13, align 8, !tbaa !48
  %101 = load ptr, ptr %9, align 8, !tbaa !10
  %102 = getelementptr inbounds nuw %struct._lv_table_t, ptr %101, i32 0, i32 3
  %103 = load ptr, ptr %102, align 8, !tbaa !26
  %104 = load i32, ptr %10, align 4, !tbaa !25
  %105 = zext i32 %104 to i64
  %106 = getelementptr inbounds nuw ptr, ptr %103, i64 %105
  %107 = load ptr, ptr %106, align 8, !tbaa !27
  %108 = load i64, ptr %13, align 8, !tbaa !48
  %109 = call ptr @lv_realloc(ptr noundef %107, i64 noundef %108)
  %110 = load ptr, ptr %9, align 8, !tbaa !10
  %111 = getelementptr inbounds nuw %struct._lv_table_t, ptr %110, i32 0, i32 3
  %112 = load ptr, ptr %111, align 8, !tbaa !26
  %113 = load i32, ptr %10, align 4, !tbaa !25
  %114 = zext i32 %113 to i64
  %115 = getelementptr inbounds nuw ptr, ptr %112, i64 %114
  store ptr %109, ptr %115, align 8, !tbaa !27
  br label %116

116:                                              ; preds = %98
  %117 = load ptr, ptr %9, align 8, !tbaa !10
  %118 = getelementptr inbounds nuw %struct._lv_table_t, ptr %117, i32 0, i32 3
  %119 = load ptr, ptr %118, align 8, !tbaa !26
  %120 = load i32, ptr %10, align 4, !tbaa !25
  %121 = zext i32 %120 to i64
  %122 = getelementptr inbounds nuw ptr, ptr %119, i64 %121
  %123 = load ptr, ptr %122, align 8, !tbaa !27
  %124 = icmp ne ptr %123, null
  br i1 %124, label %131, label %125

125:                                              ; preds = %116
  br label %126

126:                                              ; preds = %125
  br label %127

127:                                              ; preds = %126
  br label %128

128:                                              ; preds = %127
  br label %129

129:                                              ; preds = %130, %128
  br label %130

130:                                              ; preds = %129
  br label %129

131:                                              ; preds = %116
  br label %132

132:                                              ; preds = %131
  br label %133

133:                                              ; preds = %132
  %134 = load ptr, ptr %9, align 8, !tbaa !10
  %135 = getelementptr inbounds nuw %struct._lv_table_t, ptr %134, i32 0, i32 3
  %136 = load ptr, ptr %135, align 8, !tbaa !26
  %137 = load i32, ptr %10, align 4, !tbaa !25
  %138 = zext i32 %137 to i64
  %139 = getelementptr inbounds nuw ptr, ptr %136, i64 %138
  %140 = load ptr, ptr %139, align 8, !tbaa !27
  %141 = icmp eq ptr %140, null
  br i1 %141, label %142, label %143

142:                                              ; preds = %133
  store i32 1, ptr %14, align 4
  br label %173

143:                                              ; preds = %133
  %144 = load ptr, ptr %9, align 8, !tbaa !10
  %145 = getelementptr inbounds nuw %struct._lv_table_t, ptr %144, i32 0, i32 3
  %146 = load ptr, ptr %145, align 8, !tbaa !26
  %147 = load i32, ptr %10, align 4, !tbaa !25
  %148 = zext i32 %147 to i64
  %149 = getelementptr inbounds nuw ptr, ptr %146, i64 %148
  %150 = load ptr, ptr %149, align 8, !tbaa !27
  %151 = load ptr, ptr %8, align 8, !tbaa !45
  call void @copy_cell_txt(ptr noundef %150, ptr noundef %151)
  %152 = load i32, ptr %11, align 4, !tbaa !25
  %153 = load ptr, ptr %9, align 8, !tbaa !10
  %154 = getelementptr inbounds nuw %struct._lv_table_t, ptr %153, i32 0, i32 3
  %155 = load ptr, ptr %154, align 8, !tbaa !26
  %156 = load i32, ptr %10, align 4, !tbaa !25
  %157 = zext i32 %156 to i64
  %158 = getelementptr inbounds nuw ptr, ptr %155, i64 %157
  %159 = load ptr, ptr %158, align 8, !tbaa !27
  %160 = getelementptr inbounds nuw %struct._lv_table_cell_t, ptr %159, i32 0, i32 0
  store i32 %152, ptr %160, align 8, !tbaa !47
  %161 = load ptr, ptr %12, align 8, !tbaa !37
  %162 = load ptr, ptr %9, align 8, !tbaa !10
  %163 = getelementptr inbounds nuw %struct._lv_table_t, ptr %162, i32 0, i32 3
  %164 = load ptr, ptr %163, align 8, !tbaa !26
  %165 = load i32, ptr %10, align 4, !tbaa !25
  %166 = zext i32 %165 to i64
  %167 = getelementptr inbounds nuw ptr, ptr %164, i64 %166
  %168 = load ptr, ptr %167, align 8, !tbaa !27
  %169 = getelementptr inbounds nuw %struct._lv_table_cell_t, ptr %168, i32 0, i32 1
  store ptr %161, ptr %169, align 8, !tbaa !31
  %170 = load ptr, ptr %5, align 8, !tbaa !8
  %171 = load i32, ptr %6, align 4, !tbaa !25
  %172 = load i32, ptr %7, align 4, !tbaa !25
  call void @refr_cell_size(ptr noundef %170, i32 noundef %171, i32 noundef %172)
  store i32 0, ptr %14, align 4
  br label %173

173:                                              ; preds = %143, %142
  call void @llvm.lifetime.end.p0(i64 8, ptr %13) #6
  call void @llvm.lifetime.end.p0(i64 8, ptr %12) #6
  call void @llvm.lifetime.end.p0(i64 4, ptr %11) #6
  call void @llvm.lifetime.end.p0(i64 4, ptr %10) #6
  call void @llvm.lifetime.end.p0(i64 8, ptr %9) #6
  %174 = load i32, ptr %14, align 4
  switch i32 %174, label %176 [
    i32 0, label %175
    i32 1, label %175
  ]

175:                                              ; preds = %173, %173
  ret void

176:                                              ; preds = %173
  unreachable
}