; Function Attrs: nounwind uwtable
define void @lv_table_set_cell_value(ptr noundef %0, i32 noundef %1, i32 noundef %2, ptr noundef %3) local_unnamed_addr #0 {
  %.not = icmp eq ptr %0, null
  br i1 %.not, label %.preheader, label %5

.preheader:                                       ; preds = %4, %.preheader
  br label %.preheader

5:                                                ; preds = %4
  %.not51 = icmp eq ptr %3, null
  br i1 %.not51, label %.preheader59, label %6

.preheader59:                                     ; preds = %5, %.preheader59
  br label %.preheader59

6:                                                ; preds = %5
  %7 = getelementptr inbounds nuw i8, ptr %0, i64 64
  %8 = load i32, ptr %7, align 8, !tbaa !3
  %.not52 = icmp ult i32 %2, %8
  br i1 %.not52, label %11, label %9

9:                                                ; preds = %6
  %10 = add i32 %2, 1
  tail call void @lv_table_set_column_count(ptr noundef nonnull %0, i32 noundef %10)
  br label %11

11:                                               ; preds = %9, %6
  %12 = getelementptr inbounds nuw i8, ptr %0, i64 68
  %13 = load i32, ptr %12, align 4, !tbaa !18
  %.not53 = icmp ult i32 %1, %13
  br i1 %.not53, label %16, label %14

14:                                               ; preds = %11
  %15 = add i32 %1, 1
  tail call void @lv_table_set_row_count(ptr noundef nonnull %0, i32 noundef %15)
  br label %16

16:                                               ; preds = %14, %11
  %17 = load i32, ptr %7, align 8, !tbaa !3
  %18 = mul i32 %17, %1
  %19 = add i32 %18, %2
  %20 = getelementptr inbounds nuw i8, ptr %0, i64 72
  %21 = load ptr, ptr %20, align 8, !tbaa !22
  %22 = zext i32 %19 to i64
  %23 = getelementptr inbounds nuw ptr, ptr %21, i64 %22
  %24 = load ptr, ptr %23, align 8, !tbaa !23
  %.not54 = icmp eq ptr %24, null
  br i1 %.not54, label %.thread, label %25

25:                                               ; preds = %16
  %26 = load i32, ptr %24, align 8, !tbaa !41
  %27 = getelementptr inbounds nuw i8, ptr %24, i64 8
  %28 = load ptr, ptr %27, align 8, !tbaa !27
  br label %.thread

.thread:                                          ; preds = %16, %25
  %.058 = phi i32 [ %26, %25 ], [ 0, %16 ]
  %.043 = phi ptr [ %28, %25 ], [ null, %16 ]
  %29 = tail call i64 @lv_strlen(ptr noundef nonnull %3) #9
  %30 = add i64 %29, 25
  %31 = load ptr, ptr %20, align 8, !tbaa !22
  %32 = getelementptr inbounds nuw ptr, ptr %31, i64 %22
  %33 = load ptr, ptr %32, align 8, !tbaa !23
  %34 = tail call ptr @lv_realloc(ptr noundef %33, i64 noundef %30) #9
  %35 = load ptr, ptr %20, align 8, !tbaa !22
  %36 = getelementptr inbounds nuw ptr, ptr %35, i64 %22
  store ptr %34, ptr %36, align 8, !tbaa !23
  %.not56 = icmp eq ptr %34, null
  br i1 %.not56, label %.preheader60, label %37

.preheader60:                                     ; preds = %.thread, %.preheader60
  br label %.preheader60

37:                                               ; preds = %.thread
  %38 = getelementptr inbounds nuw i8, ptr %34, i64 16
  %39 = tail call ptr @lv_strcpy(ptr noundef nonnull %38, ptr noundef nonnull %3) #9
  %40 = load ptr, ptr %20, align 8, !tbaa !22
  %41 = getelementptr inbounds nuw ptr, ptr %40, i64 %22
  %42 = load ptr, ptr %41, align 8, !tbaa !23
  store i32 %.058, ptr %42, align 8, !tbaa !41
  %43 = getelementptr inbounds nuw i8, ptr %42, i64 8
  store ptr %.043, ptr %43, align 8, !tbaa !27
  tail call fastcc void @refr_cell_size(ptr noundef %0, i32 noundef %1, i32 noundef %2)
  ret void
}